target datalayout = "e-m:e-p270:32:32-p271:32:32-p272:64:64-i64:64-i128:128-f80:128-n8:16:32:64-S128"
target triple = "x86_64-pc-linux-gnu"

; Function Attrs: inlinehint mustprogress nounwind uwtable
define linkonce_odr dso_local noundef i32 @_Z21meshopt_quantizeSnormfi(float noundef %0, i32 noundef %1) #4 comdat {
  %3 = alloca float, align 4
  %4 = alloca i32, align 4
  %5 = alloca float, align 4
  %6 = alloca float, align 4
  store float %0, ptr %3, align 4, !tbaa !20
  store i32 %1, ptr %4, align 4, !tbaa !18
  call void @llvm.lifetime.start.p0(i64 4, ptr %5) #11
  %7 = load i32, ptr %4, align 4, !tbaa !18
  %8 = sub nsw i32 %7, 1
  %9 = shl i32 1, %8
  %10 = sub nsw i32 %9, 1
  %11 = sitofp i32 %10 to float
  store float %11, ptr %5, align 4, !tbaa !20
  call void @llvm.lifetime.start.p0(i64 4, ptr %6) #11
  %12 = load float, ptr %3, align 4, !tbaa !20
  %13 = fcmp oge float %12, 0.000000e+00
  %14 = select i1 %13, float 5.000000e-01, float -5.000000e-01
  store float %14, ptr %6, align 4, !tbaa !20
  %15 = load float, ptr %3, align 4, !tbaa !20
  %16 = fcmp oge float %15, -1.000000e+00
  br i1 %16, label %17, label %19

17:                                               ; preds = %2
  %18 = load float, ptr %3, align 4, !tbaa !20
  br label %20

19:                                               ; preds = %2
  br label %20

20:                                               ; preds = %19, %17
  %21 = phi float [ %18, %17 ], [ -1.000000e+00, %19 ]
  store float %21, ptr %3, align 4, !tbaa !20
  %22 = load float, ptr %3, align 4, !tbaa !20
  %23 = fcmp ole float %22, 1.000000e+00
  br i1 %23, label %24, label %26

24:                                               ; preds = %20
  %25 = load float, ptr %3, align 4, !tbaa !20
  br label %27

26:                                               ; preds = %20
  br label %27

27:                                               ; preds = %26, %24
  %28 = phi float [ %25, %24 ], [ 1.000000e+00, %26 ]
  store float %28, ptr %3, align 4, !tbaa !20
  %29 = load float, ptr %3, align 4, !tbaa !20
  %30 = load float, ptr %5, align 4, !tbaa !20
  %31 = load float, ptr %6, align 4, !tbaa !20
  %32 = call float @llvm.fmuladd.f32(float %29, float %30, float %31)
  %33 = fptosi float %32 to i32
  call void @llvm.lifetime.end.p0(i64 4, ptr %6) #11
  call void @llvm.lifetime.end.p0(i64 4, ptr %5) #11
  ret i32 %33
}

; Function Attrs: mustprogress uwtable
define dso_local void @meshopt_encodeFilterOct(ptr noundef %0, i64 noundef %1, i64 noundef %2, i32 noundef %3, ptr noundef %4) #0 {
  %6 = alloca ptr, align 8
  %7 = alloca i64, align 8
  %8 = alloca i64, align 8
  %9 = alloca i32, align 4
  %10 = alloca ptr, align 8
  %11 = alloca ptr, align 8
  %12 = alloca ptr, align 8
  %13 = alloca i32, align 4
  %14 = alloca i64, align 8
  %15 = alloca ptr, align 8
  %16 = alloca float, align 4
  %17 = alloca float, align 4
  %18 = alloca float, align 4
  %19 = alloca float, align 4
  %20 = alloca float, align 4
  %21 = alloca float, align 4
  %22 = alloca float, align 4
  %23 = alloca float, align 4
  %24 = alloca i32, align 4
  %25 = alloca i32, align 4
  %26 = alloca i32, align 4
  %27 = alloca i32, align 4
  store ptr %0, ptr %6, align 8, !tbaa !4
  store i64 %1, ptr %7, align 8, !tbaa !8
  store i64 %2, ptr %8, align 8, !tbaa !8
  store i32 %3, ptr %9, align 4, !tbaa !18
  store ptr %4, ptr %10, align 8, !tbaa !30
  call void @llvm.lifetime.start.p0(i64 8, ptr %11) #11
  %28 = load ptr, ptr %6, align 8, !tbaa !4
  store ptr %28, ptr %11, align 8, !tbaa !10
  call void @llvm.lifetime.start.p0(i64 8, ptr %12) #11
  %29 = load ptr, ptr %6, align 8, !tbaa !4
  store ptr %29, ptr %12, align 8, !tbaa !15
  call void @llvm.lifetime.start.p0(i64 4, ptr %13) #11
  %30 = load i64, ptr %8, align 8, !tbaa !8
  %31 = mul i64 %30, 2
  %32 = trunc i64 %31 to i32
  store i32 %32, ptr %13, align 4, !tbaa !18
  call void @llvm.lifetime.start.p0(i64 8, ptr %14) #11
  store i64 0, ptr %14, align 8, !tbaa !8
  br label %33

33:                                               ; preds = %177, %5
  %34 = load i64, ptr %14, align 8, !tbaa !8
  %35 = load i64, ptr %7, align 8, !tbaa !8
  %36 = icmp ult i64 %34, %35
  br i1 %36, label %38, label %37

37:                                               ; preds = %33
  call void @llvm.lifetime.end.p0(i64 8, ptr %14) #11
  br label %180

38:                                               ; preds = %33
  call void @llvm.lifetime.start.p0(i64 8, ptr %15) #11
  %39 = load ptr, ptr %10, align 8, !tbaa !30
  %40 = load i64, ptr %14, align 8, !tbaa !8
  %41 = mul i64 %40, 4
  %42 = getelementptr inbounds nuw float, ptr %39, i64 %41
  store ptr %42, ptr %15, align 8, !tbaa !30
  call void @llvm.lifetime.start.p0(i64 4, ptr %16) #11
  %43 = load ptr, ptr %15, align 8, !tbaa !30
  %44 = getelementptr inbounds float, ptr %43, i64 0
  %45 = load float, ptr %44, align 4, !tbaa !20
  store float %45, ptr %16, align 4, !tbaa !20
  call void @llvm.lifetime.start.p0(i64 4, ptr %17) #11
  %46 = load ptr, ptr %15, align 8, !tbaa !30
  %47 = getelementptr inbounds float, ptr %46, i64 1
  %48 = load float, ptr %47, align 4, !tbaa !20
  store float %48, ptr %17, align 4, !tbaa !20
  call void @llvm.lifetime.start.p0(i64 4, ptr %18) #11
  %49 = load ptr, ptr %15, align 8, !tbaa !30
  %50 = getelementptr inbounds float, ptr %49, i64 2
  %51 = load float, ptr %50, align 4, !tbaa !20
  store float %51, ptr %18, align 4, !tbaa !20
  call void @llvm.lifetime.start.p0(i64 4, ptr %19) #11
  %52 = load ptr, ptr %15, align 8, !tbaa !30
  %53 = getelementptr inbounds float, ptr %52, i64 3
  %54 = load float, ptr %53, align 4, !tbaa !20
  store float %54, ptr %19, align 4, !tbaa !20
  call void @llvm.lifetime.start.p0(i64 4, ptr %20) #11
  %55 = load float, ptr %16, align 4, !tbaa !20
  %56 = call float @llvm.fabs.f32(float %55)
  %57 = load float, ptr %17, align 4, !tbaa !20
  %58 = call float @llvm.fabs.f32(float %57)
  %59 = fadd float %56, %58
  %60 = load float, ptr %18, align 4, !tbaa !20
  %61 = call float @llvm.fabs.f32(float %60)
  %62 = fadd float %59, %61
  store float %62, ptr %20, align 4, !tbaa !20
  call void @llvm.lifetime.start.p0(i64 4, ptr %21) #11
  %63 = load float, ptr %20, align 4, !tbaa !20
  %64 = fcmp oeq float %63, 0.000000e+00
  br i1 %64, label %65, label %66

65:                                               ; preds = %38
  br label %69

66:                                               ; preds = %38
  %67 = load float, ptr %20, align 4, !tbaa !20
  %68 = fdiv float 1.000000e+00, %67
  br label %69

69:                                               ; preds = %66, %65
  %70 = phi float [ 0.000000e+00, %65 ], [ %68, %66 ]
  store float %70, ptr %21, align 4, !tbaa !20
  %71 = load float, ptr %21, align 4, !tbaa !20
  %72 = load float, ptr %16, align 4, !tbaa !20
  %73 = fmul float %72, %71
  store float %73, ptr %16, align 4, !tbaa !20
  %74 = load float, ptr %21, align 4, !tbaa !20
  %75 = load float, ptr %17, align 4, !tbaa !20
  %76 = fmul float %75, %74
  store float %76, ptr %17, align 4, !tbaa !20
  call void @llvm.lifetime.start.p0(i64 4, ptr %22) #11
  %77 = load float, ptr %18, align 4, !tbaa !20
  %78 = fcmp oge float %77, 0.000000e+00
  br i1 %78, label %79, label %81

79:                                               ; preds = %69
  %80 = load float, ptr %16, align 4, !tbaa !20
  br label %89

81:                                               ; preds = %69
  %82 = load float, ptr %17, align 4, !tbaa !20
  %83 = call float @llvm.fabs.f32(float %82)
  %84 = fsub float 1.000000e+00, %83
  %85 = load float, ptr %16, align 4, !tbaa !20
  %86 = fcmp oge float %85, 0.000000e+00
  %87 = select i1 %86, float 1.000000e+00, float -1.000000e+00
  %88 = fmul float %84, %87
  br label %89

89:                                               ; preds = %81, %79
  %90 = phi float [ %80, %79 ], [ %88, %81 ]
  store float %90, ptr %22, align 4, !tbaa !20
  call void @llvm.lifetime.start.p0(i64 4, ptr %23) #11
  %91 = load float, ptr %18, align 4, !tbaa !20
  %92 = fcmp oge float %91, 0.000000e+00
  br i1 %92, label %93, label %95

93:                                               ; preds = %89
  %94 = load float, ptr %17, align 4, !tbaa !20
  br label %103

95:                                               ; preds = %89
  %96 = load float, ptr %16, align 4, !tbaa !20
  %97 = call float @llvm.fabs.f32(float %96)
  %98 = fsub float 1.000000e+00, %97
  %99 = load float, ptr %17, align 4, !tbaa !20
  %100 = fcmp oge float %99, 0.000000e+00
  %101 = select i1 %100, float 1.000000e+00, float -1.000000e+00
  %102 = fmul float %98, %101
  br label %103

103:                                              ; preds = %95, %93
  %104 = phi float [ %94, %93 ], [ %102, %95 ]
  store float %104, ptr %23, align 4, !tbaa !20
  call void @llvm.lifetime.start.p0(i64 4, ptr %24) #11
  %105 = load float, ptr %22, align 4, !tbaa !20
  %106 = load i32, ptr %9, align 4, !tbaa !18
  %107 = call noundef i32 @_Z21meshopt_quantizeSnormfi(float noundef %105, i32 noundef %106)
  store i32 %107, ptr %24, align 4, !tbaa !18
  call void @llvm.lifetime.start.p0(i64 4, ptr %25) #11
  %108 = load float, ptr %23, align 4, !tbaa !20
  %109 = load i32, ptr %9, align 4, !tbaa !18
  %110 = call noundef i32 @_Z21meshopt_quantizeSnormfi(float noundef %108, i32 noundef %109)
  store i32 %110, ptr %25, align 4, !tbaa !18
  call void @llvm.lifetime.start.p0(i64 4, ptr %26) #11
  %111 = load i32, ptr %9, align 4, !tbaa !18
  %112 = call noundef i32 @_Z21meshopt_quantizeSnormfi(float noundef 1.000000e+00, i32 noundef %111)
  store i32 %112, ptr %26, align 4, !tbaa !18
  call void @llvm.lifetime.start.p0(i64 4, ptr %27) #11
  %113 = load float, ptr %19, align 4, !tbaa !20
  %114 = load i32, ptr %13, align 4, !tbaa !18
  %115 = call noundef i32 @_Z21meshopt_quantizeSnormfi(float noundef %113, i32 noundef %114)
  store i32 %115, ptr %27, align 4, !tbaa !18
  %116 = load i64, ptr %8, align 8, !tbaa !8
  %117 = icmp eq i64 %116, 4
  br i1 %117, label %118, label %147

118:                                              ; preds = %103
  %119 = load i32, ptr %24, align 4, !tbaa !18
  %120 = trunc i32 %119 to i8
  %121 = load ptr, ptr %11, align 8, !tbaa !10
  %122 = load i64, ptr %14, align 8, !tbaa !8
  %123 = mul i64 %122, 4
  %124 = add i64 %123, 0
  %125 = getelementptr inbounds nuw i8, ptr %121, i64 %124
  store i8 %120, ptr %125, align 1, !tbaa !12
  %126 = load i32, ptr %25, align 4, !tbaa !18
  %127 = trunc i32 %126 to i8
  %128 = load ptr, ptr %11, align 8, !tbaa !10
  %129 = load i64, ptr %14, align 8, !tbaa !8
  %130 = mul i64 %129, 4
  %131 = add i64 %130, 1
  %132 = getelementptr inbounds nuw i8, ptr %128, i64 %131
  store i8 %127, ptr %132, align 1, !tbaa !12
  %133 = load i32, ptr %26, align 4, !tbaa !18
  %134 = trunc i32 %133 to i8
  %135 = load ptr, ptr %11, align 8, !tbaa !10
  %136 = load i64, ptr %14, align 8, !tbaa !8
  %137 = mul i64 %136, 4
  %138 = add i64 %137, 2
  %139 = getelementptr inbounds nuw i8, ptr %135, i64 %138
  store i8 %134, ptr %139, align 1, !tbaa !12
  %140 = load i32, ptr %27, align 4, !tbaa !18
  %141 = trunc i32 %140 to i8
  %142 = load ptr, ptr %11, align 8, !tbaa !10
  %143 = load i64, ptr %14, align 8, !tbaa !8
  %144 = mul i64 %143, 4
  %145 = add i64 %144, 3
  %146 = getelementptr inbounds nuw i8, ptr %142, i64 %145
  store i8 %141, ptr %146, align 1, !tbaa !12
  br label %176

147:                                              ; preds = %103
  %148 = load i32, ptr %24, align 4, !tbaa !18
  %149 = trunc i32 %148 to i16
  %150 = load ptr, ptr %12, align 8, !tbaa !15
  %151 = load i64, ptr %14, align 8, !tbaa !8
  %152 = mul i64 %151, 4
  %153 = add i64 %152, 0
  %154 = getelementptr inbounds nuw i16, ptr %150, i64 %153
  store i16 %149, ptr %154, align 2, !tbaa !24
  %155 = load i32, ptr %25, align 4, !tbaa !18
  %156 = trunc i32 %155 to i16
  %157 = load ptr, ptr %12, align 8, !tbaa !15
  %158 = load i64, ptr %14, align 8, !tbaa !8
  %159 = mul i64 %158, 4
  %160 = add i64 %159, 1
  %161 = getelementptr inbounds nuw i16, ptr %157, i64 %160
  store i16 %156, ptr %161, align 2, !tbaa !24
  %162 = load i32, ptr %26, align 4, !tbaa !18
  %163 = trunc i32 %162 to i16
  %164 = load ptr, ptr %12, align 8, !tbaa !15
  %165 = load i64, ptr %14, align 8, !tbaa !8
  %166 = mul i64 %165, 4
  %167 = add i64 %166, 2
  %168 = getelementptr inbounds nuw i16, ptr %164, i64 %167
  store i16 %163, ptr %168, align 2, !tbaa !24
  %169 = load i32, ptr %27, align 4, !tbaa !18
  %170 = trunc i32 %169 to i16
  %171 = load ptr, ptr %12, align 8, !tbaa !15
  %172 = load i64, ptr %14, align 8, !tbaa !8
  %173 = mul i64 %172, 4
  %174 = add i64 %173, 3
  %175 = getelementptr inbounds nuw i16, ptr %171, i64 %174
  store i16 %170, ptr %175, align 2, !tbaa !24
  br label %176

176:                                              ; preds = %147, %118
  call void @llvm.lifetime.end.p0(i64 4, ptr %27) #11
  call void @llvm.lifetime.end.p0(i64 4, ptr %26) #11
  call void @llvm.lifetime.end.p0(i64 4, ptr %25) #11
  call void @llvm.lifetime.end.p0(i64 4, ptr %24) #11
  call void @llvm.lifetime.end.p0(i64 4, ptr %23) #11
  call void @llvm.lifetime.end.p0(i64 4, ptr %22) #11
  call void @llvm.lifetime.end.p0(i64 4, ptr %21) #11
  call void @llvm.lifetime.end.p0(i64 4, ptr %20) #11
  call void @llvm.lifetime.end.p0(i64 4, ptr %19) #11
  call void @llvm.lifetime.end.p0(i64 4, ptr %18) #11
  call void @llvm.lifetime.end.p0(i64 4, ptr %17) #11
  call void @llvm.lifetime.end.p0(i64 4, ptr %16) #11
  call void @llvm.lifetime.end.p0(i64 8, ptr %15) #11
  br label %177

177:                                              ; preds = %176
  %178 = load i64, ptr %14, align 8, !tbaa !8
  %179 = add i64 %178, 1
  store i64 %179, ptr %14, align 8, !tbaa !8
  br label %33, !llvm.loop !32

180:                                              ; preds = %37
  call void @llvm.lifetime.end.p0(i64 4, ptr %13) #11
  call void @llvm.lifetime.end.p0(i64 8, ptr %12) #11
  call void @llvm.lifetime.end.p0(i64 8, ptr %11) #11
  ret void
}