; Function Attrs: mustprogress nofree norecurse nosync nounwind memory(argmem: readwrite) uwtable
define dso_local void @meshopt_encodeFilterOct(ptr noundef writeonly captures(none) %0, i64 noundef %1, i64 noundef %2, i32 noundef %3, ptr noundef readonly captures(none) %4) local_unnamed_addr #1 {
  %.not = icmp eq i64 %1, 0
  br i1 %.not, label %._crit_edge, label %.lr.ph

.lr.ph:                                           ; preds = %5
  %.tr = trunc i64 %2 to i32
  %6 = shl i32 %.tr, 1
  %7 = add nsw i32 %3, -1
  %notmask.i = shl nsw i32 -1, %7
  %8 = xor i32 %notmask.i, -1
  %9 = uitofp nneg i32 %8 to float
  %10 = fadd float %9, 5.000000e-01
  %11 = fptosi float %10 to i32
  %12 = add nsw i32 %6, -1
  %notmask.i62 = shl nsw i32 -1, %12
  %13 = xor i32 %notmask.i62, -1
  %14 = uitofp nneg i32 %13 to float
  %15 = icmp eq i64 %2, 4
  %16 = trunc i32 %11 to i16
  %17 = trunc i32 %11 to i8
  br label %18

._crit_edge:                                      ; preds = %95, %5
  ret void

18:                                               ; preds = %.lr.ph, %95
  %.063 = phi i64 [ 0, %.lr.ph ], [ %96, %95 ]
  %19 = shl i64 %.063, 2
  %20 = getelementptr inbounds nuw float, ptr %4, i64 %19
  %21 = load float, ptr %20, align 4, !tbaa !14
  %22 = getelementptr inbounds nuw i8, ptr %20, i64 4
  %23 = load float, ptr %22, align 4, !tbaa !14
  %24 = getelementptr inbounds nuw i8, ptr %20, i64 8
  %25 = load float, ptr %24, align 4, !tbaa !14
  %26 = getelementptr inbounds nuw i8, ptr %20, i64 12
  %27 = load float, ptr %26, align 4, !tbaa !14
  %28 = tail call float @llvm.fabs.f32(float %21)
  %29 = tail call float @llvm.fabs.f32(float %23)
  %30 = fadd float %28, %29
  %31 = tail call float @llvm.fabs.f32(float %25)
  %32 = fadd float %30, %31
  %33 = fcmp oeq float %32, 0.000000e+00
  %34 = fdiv float 1.000000e+00, %32
  %35 = select i1 %33, float 0.000000e+00, float %34
  %36 = fmul float %21, %35
  %37 = fmul float %23, %35
  %38 = fcmp ult float %25, 0.000000e+00
  br i1 %38, label %39, label %.thread

39:                                               ; preds = %18
  %40 = tail call float @llvm.fabs.f32(float %37)
  %41 = fsub float 1.000000e+00, %40
  %42 = fcmp oge float %36, 0.000000e+00
  %43 = fneg float %41
  %44 = select i1 %42, float %41, float %43
  %45 = tail call float @llvm.fabs.f32(float %36)
  %46 = fsub float 1.000000e+00, %45
  %47 = fcmp oge float %37, 0.000000e+00
  %48 = fneg float %46
  %49 = select i1 %47, float %46, float %48
  br label %.thread

.thread:                                          ; preds = %18, %39
  %50 = phi float [ %44, %39 ], [ %36, %18 ]
  %51 = phi float [ %49, %39 ], [ %37, %18 ]
  %52 = fcmp oge float %50, 0.000000e+00
  %53 = select i1 %52, float 5.000000e-01, float -5.000000e-01
  %54 = fcmp oge float %50, -1.000000e+00
  %55 = select i1 %54, float %50, float -1.000000e+00
  %56 = fcmp ole float %55, 1.000000e+00
  %57 = select i1 %56, float %55, float 1.000000e+00
  %58 = tail call float @llvm.fmuladd.f32(float %57, float %9, float %53)
  %59 = fptosi float %58 to i32
  %60 = fcmp oge float %51, 0.000000e+00
  %61 = select i1 %60, float 5.000000e-01, float -5.000000e-01
  %62 = fcmp oge float %51, -1.000000e+00
  %63 = select i1 %62, float %51, float -1.000000e+00
  %64 = fcmp ole float %63, 1.000000e+00
  %65 = select i1 %64, float %63, float 1.000000e+00
  %66 = tail call float @llvm.fmuladd.f32(float %65, float %9, float %61)
  %67 = fptosi float %66 to i32
  %68 = fcmp oge float %27, 0.000000e+00
  %69 = select i1 %68, float 5.000000e-01, float -5.000000e-01
  %70 = fcmp oge float %27, -1.000000e+00
  %71 = select i1 %70, float %27, float -1.000000e+00
  %72 = fcmp ole float %71, 1.000000e+00
  %73 = select i1 %72, float %71, float 1.000000e+00
  %74 = tail call float @llvm.fmuladd.f32(float %73, float %14, float %69)
  %75 = fptosi float %74 to i32
  %76 = or disjoint i64 %19, 1
  %77 = or disjoint i64 %19, 2
  %78 = or disjoint i64 %19, 3
  br i1 %15, label %79, label %87

79:                                               ; preds = %.thread
  %80 = trunc i32 %59 to i8
  %81 = getelementptr inbounds nuw i8, ptr %0, i64 %19
  store i8 %80, ptr %81, align 1, !tbaa !4
  %82 = trunc i32 %67 to i8
  %83 = getelementptr inbounds nuw i8, ptr %0, i64 %76
  store i8 %82, ptr %83, align 1, !tbaa !4
  %84 = getelementptr inbounds nuw i8, ptr %0, i64 %77
  store i8 %17, ptr %84, align 1, !tbaa !4
  %85 = trunc i32 %75 to i8
  %86 = getelementptr inbounds nuw i8, ptr %0, i64 %78
  store i8 %85, ptr %86, align 1, !tbaa !4
  br label %95

87:                                               ; preds = %.thread
  %88 = trunc i32 %59 to i16
  %89 = getelementptr inbounds nuw i16, ptr %0, i64 %19
  store i16 %88, ptr %89, align 2, !tbaa !16
  %90 = trunc i32 %67 to i16
  %91 = getelementptr inbounds nuw i16, ptr %0, i64 %76
  store i16 %90, ptr %91, align 2, !tbaa !16
  %92 = getelementptr inbounds nuw i16, ptr %0, i64 %77
  store i16 %16, ptr %92, align 2, !tbaa !16
  %93 = trunc i32 %75 to i16
  %94 = getelementptr inbounds nuw i16, ptr %0, i64 %78
  store i16 %93, ptr %94, align 2, !tbaa !16
  br label %95

95:                                               ; preds = %87, %79
  %96 = add nuw i64 %.063, 1
  %exitcond.not = icmp eq i64 %96, %1
  br i1 %exitcond.not, label %._crit_edge, label %18, !llvm.loop !18
}